target datalayout = "e-m:e-p270:32:32-p271:32:32-p272:64:64-i64:64-i128:128-f80:128-n8:16:32:64-S128"
target triple = "x86_64-unknown-linux-gnu"

%struct.QEnumLookup = type { ptr, ptr, i32 }
%struct.sockaddr_in = type { i16, i16, %struct.in_addr, [8 x i8] }
%struct.in_addr = type { i32 }
%struct.SocketAddress = type { i32, %union.anon.0 }
%union.anon.0 = type { %struct.InetSocketAddress }
%struct.InetSocketAddress = type { ptr, ptr, i8, i8, i8, i16, i8, i8, i8, i8, i8, i8, i8, i8 }
%struct.NetSocketState = type { %struct.NetClientState, i32, i32, %struct.SocketReadState, i32, %struct.sockaddr_in, ptr, i8, i8 }
%struct.NetClientState = type { ptr, i32, %union.anon.1, ptr, ptr, ptr, ptr, [256 x i8], i8, ptr, i32, i8, i32, i32, i8, i8, i8, %union.anon.2 }
%union.anon.1 = type { %struct.QTailQLink }
%struct.QTailQLink = type { ptr, ptr }
%union.anon.2 = type { %struct.QTailQLink }
%struct.SocketReadState = type { i32, i8, i32, i32, i32, [69632 x i8], ptr }

@.str.1 = private unnamed_addr constant [21 x i8] c"../qemu/net/socket.c\00", align 1
@__func__.net_socket_fd_init_dgram = private unnamed_addr constant [25 x i8] c"net_socket_fd_init_dgram\00", align 1
@.str.10 = private unnamed_addr constant [42 x i8] c"can't setup multicast destination address\00", align 1
@.str.11 = private unnamed_addr constant [35 x i8] c"socket: fd=%d (cloned mcast=%s:%d)\00", align 1
@.str.12 = private unnamed_addr constant [17 x i8] c"socket: fd=%d %s\00", align 1
@SocketAddressType_lookup = external constant %struct.QEnumLookup, align 8

; Function Attrs: nounwind sspstrong uwtable
define internal void @net_socket_update_fd_handler(ptr noundef %s) #0 {
entry:
  %s.addr = alloca ptr, align 8
  store ptr %s, ptr %s.addr, align 8
  %0 = load ptr, ptr %s.addr, align 8
  %fd = getelementptr inbounds %struct.NetSocketState, ptr %0, i32 0, i32 2
  %1 = load i32, ptr %fd, align 4
  %2 = load ptr, ptr %s.addr, align 8
  %read_poll = getelementptr inbounds %struct.NetSocketState, ptr %2, i32 0, i32 7
  %3 = load i8, ptr %read_poll, align 8
  %tobool = trunc i8 %3 to i1
  br i1 %tobool, label %cond.true, label %cond.false

cond.true:                                        ; preds = %entry
  %4 = load ptr, ptr %s.addr, align 8
  %send_fn = getelementptr inbounds %struct.NetSocketState, ptr %4, i32 0, i32 6
  %5 = load ptr, ptr %send_fn, align 8
  br label %cond.end

cond.false:                                       ; preds = %entry
  br label %cond.end

cond.end:                                         ; preds = %cond.false, %cond.true
  %cond = phi ptr [ %5, %cond.true ], [ null, %cond.false ]
  %6 = load ptr, ptr %s.addr, align 8
  %write_poll = getelementptr inbounds %struct.NetSocketState, ptr %6, i32 0, i32 8
  %7 = load i8, ptr %write_poll, align 1
  %tobool1 = trunc i8 %7 to i1
  %cond2 = select i1 %tobool1, ptr @net_socket_writable, ptr null
  %8 = load ptr, ptr %s.addr, align 8
  call void @qemu_set_fd_handler(i32 noundef %1, ptr noundef %cond, ptr noundef %cond2, ptr noundef %8)
  ret void
}

; Function Attrs: nounwind sspstrong uwtable
define internal void @net_socket_read_poll(ptr noundef %s, i1 noundef zeroext %enable) #0 {
entry:
  %s.addr = alloca ptr, align 8
  %enable.addr = alloca i8, align 1
  store ptr %s, ptr %s.addr, align 8
  %frombool = zext i1 %enable to i8
  store i8 %frombool, ptr %enable.addr, align 1
  %0 = load i8, ptr %enable.addr, align 1
  %tobool = trunc i8 %0 to i1
  %1 = load ptr, ptr %s.addr, align 8
  %read_poll = getelementptr inbounds %struct.NetSocketState, ptr %1, i32 0, i32 7
  %frombool1 = zext i1 %tobool to i8
  store i8 %frombool1, ptr %read_poll, align 8
  %2 = load ptr, ptr %s.addr, align 8
  call void @net_socket_update_fd_handler(ptr noundef %2)
  ret void
}

; Function Attrs: nounwind sspstrong uwtable
define internal ptr @net_socket_fd_init_dgram(ptr noundef %peer, ptr noundef %model, ptr noundef %name, i32 noundef %fd, i32 noundef %is_connected, ptr noundef %mcast, ptr noundef %errp) #0 {
entry:
  %retval = alloca ptr, align 8
  %peer.addr = alloca ptr, align 8
  %model.addr = alloca ptr, align 8
  %name.addr = alloca ptr, align 8
  %fd.addr = alloca i32, align 4
  %is_connected.addr = alloca i32, align 4
  %mcast.addr = alloca ptr, align 8
  %errp.addr = alloca ptr, align 8
  %saddr = alloca %struct.sockaddr_in, align 4
  %newfd = alloca i32, align 4
  %nc = alloca ptr, align 8
  %s = alloca ptr, align 8
  %sa = alloca ptr, align 8
  %sa_type = alloca i32, align 4
  %tmp = alloca ptr, align 8
  %__mptr = alloca ptr, align 8
  %tmp18 = alloca ptr, align 8
  store ptr %peer, ptr %peer.addr, align 8
  store ptr %model, ptr %model.addr, align 8
  store ptr %name, ptr %name.addr, align 8
  store i32 %fd, ptr %fd.addr, align 4
  store i32 %is_connected, ptr %is_connected.addr, align 4
  store ptr %mcast, ptr %mcast.addr, align 8
  store ptr %errp, ptr %errp.addr, align 8
  %0 = load i32, ptr %fd.addr, align 4
  %1 = load ptr, ptr %errp.addr, align 8
  %call = call ptr @socket_local_address(i32 noundef %0, ptr noundef %1)
  store ptr %call, ptr %sa, align 8
  %2 = load ptr, ptr %sa, align 8
  %tobool = icmp ne ptr %2, null
  br i1 %tobool, label %if.end, label %if.then

if.then:                                          ; preds = %entry
  store ptr null, ptr %retval, align 8
  br label %return

if.end:                                           ; preds = %entry
  %3 = load ptr, ptr %sa, align 8
  %type = getelementptr inbounds %struct.SocketAddress, ptr %3, i32 0, i32 0
  %4 = load i32, ptr %type, align 8
  store i32 %4, ptr %sa_type, align 4
  %5 = load ptr, ptr %sa, align 8
  call void @qapi_free_SocketAddress(ptr noundef %5)
  %6 = load i32, ptr %is_connected.addr, align 4
  %tobool1 = icmp ne i32 %6, 0
  br i1 %tobool1, label %land.lhs.true, label %if.end16

land.lhs.true:                                    ; preds = %if.end
  %7 = load ptr, ptr %mcast.addr, align 8
  %cmp = icmp ne ptr %7, null
  br i1 %cmp, label %if.then2, label %if.end16

if.then2:                                         ; preds = %land.lhs.true
  %8 = load ptr, ptr %mcast.addr, align 8
  %9 = load ptr, ptr %errp.addr, align 8
  %call3 = call i32 @parse_host_port(ptr noundef %saddr, ptr noundef %8, ptr noundef %9)
  %cmp4 = icmp slt i32 %call3, 0
  br i1 %cmp4, label %if.then5, label %if.end6

if.then5:                                         ; preds = %if.then2
  br label %err

if.end6:                                          ; preds = %if.then2
  %sin_addr = getelementptr inbounds %struct.sockaddr_in, ptr %saddr, i32 0, i32 2
  %s_addr = getelementptr inbounds %struct.in_addr, ptr %sin_addr, i32 0, i32 0
  %10 = load i32, ptr %s_addr, align 4
  %cmp7 = icmp eq i32 %10, 0
  br i1 %cmp7, label %if.then8, label %if.end9

if.then8:                                         ; preds = %if.end6
  %11 = load ptr, ptr %errp.addr, align 8
  call void (ptr, ptr, i32, ptr, ptr, ...) @error_setg_internal(ptr noundef %11, ptr noundef @.str.1, i32 noundef 361, ptr noundef @__func__.net_socket_fd_init_dgram, ptr noundef @.str.10)
  br label %err

if.end9:                                          ; preds = %if.end6
  %12 = load ptr, ptr %errp.addr, align 8
  %call10 = call i32 @net_socket_mcast_create(ptr noundef %saddr, ptr noundef null, ptr noundef %12)
  store i32 %call10, ptr %newfd, align 4
  %13 = load i32, ptr %newfd, align 4
  %cmp11 = icmp slt i32 %13, 0
  br i1 %cmp11, label %if.then12, label %if.end13

if.then12:                                        ; preds = %if.end9
  br label %err

if.end13:                                         ; preds = %if.end9
  %14 = load i32, ptr %newfd, align 4
  %15 = load i32, ptr %fd.addr, align 4
  %call14 = call i32 @dup2(i32 noundef %14, i32 noundef %15) #7
  %16 = load i32, ptr %newfd, align 4
  %call15 = call i32 @close(i32 noundef %16)
  br label %if.end16

if.end16:                                         ; preds = %if.end13, %land.lhs.true, %if.end
  %17 = load ptr, ptr %peer.addr, align 8
  %18 = load ptr, ptr %model.addr, align 8
  %19 = load ptr, ptr %name.addr, align 8
  %call17 = call ptr @qemu_new_net_client(ptr noundef @net_dgram_socket_info, ptr noundef %17, ptr noundef %18, ptr noundef %19)
  store ptr %call17, ptr %nc, align 8
  %20 = load ptr, ptr %nc, align 8
  store ptr %20, ptr %__mptr, align 8
  %21 = load ptr, ptr %__mptr, align 8
  %add.ptr = getelementptr i8, ptr %21, i64 0
  store ptr %add.ptr, ptr %tmp18, align 8
  %22 = load ptr, ptr %tmp18, align 8
  store ptr %22, ptr %tmp, align 8
  %23 = load ptr, ptr %tmp, align 8
  store ptr %23, ptr %s, align 8
  %24 = load i32, ptr %fd.addr, align 4
  %25 = load ptr, ptr %s, align 8
  %fd19 = getelementptr inbounds %struct.NetSocketState, ptr %25, i32 0, i32 2
  store i32 %24, ptr %fd19, align 4
  %26 = load ptr, ptr %s, align 8
  %listen_fd = getelementptr inbounds %struct.NetSocketState, ptr %26, i32 0, i32 1
  store i32 -1, ptr %listen_fd, align 8
  %27 = load ptr, ptr %s, align 8
  %send_fn = getelementptr inbounds %struct.NetSocketState, ptr %27, i32 0, i32 6
  store ptr @net_socket_send_dgram, ptr %send_fn, align 8
  %28 = load ptr, ptr %s, align 8
  %rs = getelementptr inbounds %struct.NetSocketState, ptr %28, i32 0, i32 3
  call void @net_socket_rs_init(ptr noundef %rs, ptr noundef @net_socket_rs_finalize, i1 noundef zeroext false)
  %29 = load ptr, ptr %s, align 8
  call void @net_socket_read_poll(ptr noundef %29, i1 noundef zeroext true)
  %30 = load i32, ptr %is_connected.addr, align 4
  %tobool20 = icmp ne i32 %30, 0
  br i1 %tobool20, label %land.lhs.true21, label %if.else

land.lhs.true21:                                  ; preds = %if.end16
  %31 = load ptr, ptr %mcast.addr, align 8
  %cmp22 = icmp ne ptr %31, null
  br i1 %cmp22, label %if.then23, label %if.else

if.then23:                                        ; preds = %land.lhs.true21
  %32 = load ptr, ptr %s, align 8
  %dgram_dst = getelementptr inbounds %struct.NetSocketState, ptr %32, i32 0, i32 5
  call void @llvm.memcpy.p0.p0.i64(ptr align 4 %dgram_dst, ptr align 4 %saddr, i64 16, i1 false)
  %33 = load ptr, ptr %nc, align 8
  %34 = load i32, ptr %fd.addr, align 4
  %sin_addr24 = getelementptr inbounds %struct.sockaddr_in, ptr %saddr, i32 0, i32 2
  %coerce.dive = getelementptr inbounds %struct.in_addr, ptr %sin_addr24, i32 0, i32 0
  %35 = load i32, ptr %coerce.dive, align 4
  %call25 = call ptr @inet_ntoa(i32 %35) #7
  %sin_port = getelementptr inbounds %struct.sockaddr_in, ptr %saddr, i32 0, i32 1
  %36 = load i16, ptr %sin_port, align 2
  %call26 = call zeroext i16 @ntohs(i16 noundef zeroext %36) #8
  %conv = zext i16 %call26 to i32
  call void (ptr, ptr, ...) @qemu_set_info_str(ptr noundef %33, ptr noundef @.str.11, i32 noundef %34, ptr noundef %call25, i32 noundef %conv)
  br label %if.end33

if.else:                                          ; preds = %land.lhs.true21, %if.end16
  %37 = load i32, ptr %sa_type, align 4
  %cmp27 = icmp eq i32 %37, 1
  br i1 %cmp27, label %if.then29, label %if.end31

if.then29:                                        ; preds = %if.else
  %38 = load ptr, ptr %s, align 8
  %dgram_dst30 = getelementptr inbounds %struct.NetSocketState, ptr %38, i32 0, i32 5
  %sin_family = getelementptr inbounds %struct.sockaddr_in, ptr %dgram_dst30, i32 0, i32 0
  store i16 1, ptr %sin_family, align 4
  br label %if.end31

if.end31:                                         ; preds = %if.then29, %if.else
  %39 = load ptr, ptr %nc, align 8
  %40 = load i32, ptr %fd.addr, align 4
  %41 = load i32, ptr %sa_type, align 4
  %call32 = call ptr @qapi_enum_lookup(ptr noundef @SocketAddressType_lookup, i32 noundef %41)
  call void (ptr, ptr, ...) @qemu_set_info_str(ptr noundef %39, ptr noundef @.str.12, i32 noundef %40, ptr noundef %call32)
  br label %if.end33

if.end33:                                         ; preds = %if.end31, %if.then23
  %42 = load ptr, ptr %s, align 8
  store ptr %42, ptr %retval, align 8
  br label %return

err:                                              ; preds = %if.then12, %if.then8, %if.then5
  %43 = load i32, ptr %fd.addr, align 4
  %call34 = call i32 @close(i32 noundef %43)
  store ptr null, ptr %retval, align 8
  br label %return

return:                                           ; preds = %err, %if.end33, %if.then
  %44 = load ptr, ptr %retval, align 8
  ret ptr %44
}