; Function Attrs: nounwind sspstrong uwtable
define internal fastcc ptr @net_socket_fd_init_dgram(ptr noundef %peer, ptr noundef %name, i32 noundef range(i32 0, -1) %fd, i32 noundef range(i32 0, 2) %is_connected, ptr noundef %mcast, ptr noundef %errp) unnamed_addr #0 {
entry:
  %saddr = alloca %struct.sockaddr_in, align 4
  %call = tail call ptr @socket_local_address(i32 noundef %fd, ptr noundef %errp) #8
  %tobool.not = icmp eq ptr %call, null
  br i1 %tobool.not, label %return, label %if.end

if.end:                                           ; preds = %entry
  %0 = load i32, ptr %call, align 8
  tail call void @qapi_free_SocketAddress(ptr noundef nonnull %call) #8
  %tobool1 = icmp ne i32 %is_connected, 0
  %cmp = icmp ne ptr %mcast, null
  %or.cond = and i1 %tobool1, %cmp
  br i1 %or.cond, label %if.then2, label %if.end16

if.then2:                                         ; preds = %if.end
  %call3 = call i32 @parse_host_port(ptr noundef nonnull %saddr, ptr noundef nonnull %mcast, ptr noundef %errp) #8
  %cmp4 = icmp slt i32 %call3, 0
  br i1 %cmp4, label %err, label %if.end6

if.end6:                                          ; preds = %if.then2
  %sin_addr = getelementptr inbounds nuw i8, ptr %saddr, i64 4
  %1 = load i32, ptr %sin_addr, align 4
  %cmp7 = icmp eq i32 %1, 0
  br i1 %cmp7, label %if.then8, label %if.end9

if.then8:                                         ; preds = %if.end6
  call void (ptr, ptr, i32, ptr, ptr, ...) @error_setg_internal(ptr noundef %errp, ptr noundef nonnull @.str.1, i32 noundef 361, ptr noundef nonnull @__func__.net_socket_fd_init_dgram, ptr noundef nonnull @.str.10) #8
  br label %err

if.end9:                                          ; preds = %if.end6
  %call10 = call fastcc i32 @net_socket_mcast_create(ptr noundef %saddr, ptr noundef null, ptr noundef %errp)
  %cmp11 = icmp slt i32 %call10, 0
  br i1 %cmp11, label %err, label %if.end13

if.end13:                                         ; preds = %if.end9
  %call14 = call i32 @dup2(i32 noundef %call10, i32 noundef %fd) #8
  %call15 = call i32 @close(i32 noundef %call10) #8
  br label %if.end16

if.end16:                                         ; preds = %if.end13, %if.end
  %call17 = call ptr @qemu_new_net_client(ptr noundef nonnull @net_dgram_socket_info, ptr noundef %peer, ptr noundef nonnull @.str.5, ptr noundef %name) #8
  %fd19 = getelementptr inbounds nuw i8, ptr %call17, i64 380
  store i32 %fd, ptr %fd19, align 4
  %listen_fd = getelementptr inbounds nuw i8, ptr %call17, i64 376
  store i32 -1, ptr %listen_fd, align 8
  %send_fn = getelementptr inbounds nuw i8, ptr %call17, i64 70072
  store ptr @net_socket_send_dgram, ptr %send_fn, align 8
  %rs = getelementptr inbounds nuw i8, ptr %call17, i64 384
  call void @net_socket_rs_init(ptr noundef nonnull %rs, ptr noundef nonnull @net_socket_rs_finalize, i1 noundef zeroext false) #8
  %read_poll.i = getelementptr inbounds nuw i8, ptr %call17, i64 70080
  store i8 1, ptr %read_poll.i, align 8
  %2 = load i32, ptr %fd19, align 4
  %3 = load ptr, ptr %send_fn, align 8
  %write_poll.i.i = getelementptr inbounds nuw i8, ptr %call17, i64 70081
  %4 = load i8, ptr %write_poll.i.i, align 1
  %tobool1.i.i = trunc i8 %4 to i1
  %cond2.i.i = select i1 %tobool1.i.i, ptr @net_socket_writable, ptr null
  call void @qemu_set_fd_handler(i32 noundef %2, ptr noundef %3, ptr noundef %cond2.i.i, ptr noundef nonnull %call17) #8
  br i1 %or.cond, label %if.then23, label %if.else

if.then23:                                        ; preds = %if.end16
  %dgram_dst = getelementptr inbounds nuw i8, ptr %call17, i64 70052
  call void @llvm.memcpy.p0.p0.i64(ptr noundef nonnull align 4 dereferenceable(16) %dgram_dst, ptr noundef nonnull align 4 dereferenceable(16) %saddr, i64 16, i1 false)
  %sin_addr24 = getelementptr inbounds nuw i8, ptr %saddr, i64 4
  %5 = load i32, ptr %sin_addr24, align 4
  %call25 = call ptr @inet_ntoa(i32 %5) #8
  %sin_port = getelementptr inbounds nuw i8, ptr %saddr, i64 2
  %6 = load i16, ptr %sin_port, align 2
  %call26 = call zeroext i16 @ntohs(i16 noundef zeroext %6) #9
  %conv = zext i16 %call26 to i32
  call void (ptr, ptr, ...) @qemu_set_info_str(ptr noundef nonnull %call17, ptr noundef nonnull @.str.11, i32 noundef %fd, ptr noundef %call25, i32 noundef %conv) #8
  br label %return

if.else:                                          ; preds = %if.end16
  %cmp27 = icmp eq i32 %0, 1
  br i1 %cmp27, label %if.then29, label %if.end31

if.then29:                                        ; preds = %if.else
  %dgram_dst30 = getelementptr inbounds nuw i8, ptr %call17, i64 70052
  store i16 1, ptr %dgram_dst30, align 4
  br label %if.end31

if.end31:                                         ; preds = %if.then29, %if.else
  %call32 = call ptr @qapi_enum_lookup(ptr noundef nonnull @SocketAddressType_lookup, i32 noundef %0) #8
  call void (ptr, ptr, ...) @qemu_set_info_str(ptr noundef nonnull %call17, ptr noundef nonnull @.str.12, i32 noundef %fd, ptr noundef %call32) #8
  br label %return

err:                                              ; preds = %if.end9, %if.then2, %if.then8
  %call34 = call i32 @close(i32 noundef %fd) #8
  br label %return

return:                                           ; preds = %if.then23, %if.end31, %entry, %err
  %retval.0 = phi ptr [ null, %err ], [ null, %entry ], [ %call17, %if.end31 ], [ %call17, %if.then23 ]
  ret ptr %retval.0
}